target datalayout = "e-m:e-p270:32:32-p271:32:32-p272:64:64-i64:64-i128:128-f80:128-n8:16:32:64-S128"
target triple = "x86_64-pc-linux-gnu"

%struct.deal = type { i32, i32, [3 x i32], [3 x i32], [4 x [4 x i32]] }
%struct.moveType = type { i32, i32, i32, i32 }
%struct.ThreadData = type { [4 x i32], i32, i8, [4 x [4 x i16]], i32, %struct.pos, i8, [50 x [4 x i16]], [13 x %struct.WinnersType], [14 x %struct.moveType], [50 x %struct.moveType], [50 x %struct.moveType], double, i32, i32, [8192 x %struct.relRanksType], ptr, %class.Moves }
%struct.pos = type { [4 x [4 x i16]], [4 x i16], [4 x [4 x i8]], [4 x i32], [50 x [4 x i16]], [50 x i32], [50 x %struct.moveType], i32, i32, [4 x %struct.highCardType], [4 x %struct.highCardType] }
%struct.highCardType = type { i32, i32 }
%struct.WinnersType = type { i32, [4 x %struct.WinnerEntryType] }
%struct.WinnerEntryType = type { i32, i32, i32, i32, i32 }
%struct.relRanksType = type { [15 x [4 x %struct.absRankType]] }
%struct.absRankType = type { i8, i8 }
%class.Moves = type { i32, i32, i32, i32, i32, i32, i32, i32, i32, [13 x %"struct.Moves::trackType"], ptr, [13 x [4 x %struct.movePlyType]], ptr, [13 x [4 x i32]], [13 x %"class.std::__cxx11::basic_string"], [13 x [4 x %"struct.Moves::moveStatType"]], [13 x [4 x %"struct.Moves::moveStatType"]], [13 x [4 x %"struct.Moves::moveStatsType"]], [13 x [4 x %"struct.Moves::moveStatsType"]], %"struct.Moves::moveStatsType", %"struct.Moves::moveStatsType", [16 x { i64, i64 }] }
%"struct.Moves::trackType" = type { i32, i32, [4 x i32], [4 x i32], %struct.trickDataType, [4 x %struct.extCard], [4 x i32], [4 x [4 x i32]], [4 x i32] }
%struct.trickDataType = type { [4 x i32], i32, i32, i32, i32, i32 }
%struct.extCard = type { i32, i32, i32 }
%struct.movePlyType = type { [14 x %struct.moveType], i32, i32 }
%"class.std::__cxx11::basic_string" = type { %"struct.std::__cxx11::basic_string<char>::_Alloc_hider", i64, %union.anon }
%"struct.std::__cxx11::basic_string<char>::_Alloc_hider" = type { ptr }
%union.anon = type { i64, [8 x i8] }
%"struct.Moves::moveStatType" = type { i32, i32, i32, i32 }
%"struct.Moves::moveStatsType" = type { i32, [13 x %"struct.Moves::moveStatType"] }

@highestRank = external global [8192 x i32], align 16
@partner = external global [4 x i32], align 16

; Function Attrs: mustprogress nounwind uwtable
define void @_Z15LastTrickWinnerRK4dealPK10ThreadDataiiRiS5_S5_(ptr noundef nonnull align 4 dereferenceable(96) %0, ptr noundef %1, i32 noundef %2, i32 noundef %3, ptr noundef nonnull align 4 dereferenceable(4) %4, ptr noundef nonnull align 4 dereferenceable(4) %5, ptr noundef nonnull align 4 dereferenceable(4) %6) #6 {
  %8 = alloca ptr, align 8
  %9 = alloca ptr, align 8
  %10 = alloca i32, align 4
  %11 = alloca i32, align 4
  %12 = alloca ptr, align 8
  %13 = alloca ptr, align 8
  %14 = alloca ptr, align 8
  %15 = alloca [4 x i32], align 16
  %16 = alloca [4 x i32], align 16
  %17 = alloca i32, align 4
  %18 = alloca i32, align 4
  %19 = alloca i32, align 4
  %20 = alloca i32, align 4
  %21 = alloca i32, align 4
  %22 = alloca i32, align 4
  store ptr %0, ptr %8, align 8
  store ptr %1, ptr %9, align 8
  store i32 %2, ptr %10, align 4
  store i32 %3, ptr %11, align 4
  store ptr %4, ptr %12, align 8
  store ptr %5, ptr %13, align 8
  store ptr %6, ptr %14, align 8
  store i32 0, ptr %17, align 4
  br label %23

23:                                               ; preds = %52, %7
  %24 = load i32, ptr %17, align 4
  %25 = load i32, ptr %11, align 4
  %26 = icmp slt i32 %24, %25
  br i1 %26, label %27, label %55

27:                                               ; preds = %23
  %28 = load ptr, ptr %8, align 8
  %29 = getelementptr inbounds nuw %struct.deal, ptr %28, i32 0, i32 1
  %30 = load i32, ptr %29, align 4
  %31 = load i32, ptr %17, align 4
  %32 = add nsw i32 %30, %31
  %33 = and i32 %32, 3
  store i32 %33, ptr %18, align 4
  %34 = load ptr, ptr %8, align 8
  %35 = getelementptr inbounds nuw %struct.deal, ptr %34, i32 0, i32 2
  %36 = load i32, ptr %17, align 4
  %37 = sext i32 %36 to i64
  %38 = getelementptr inbounds [3 x i32], ptr %35, i64 0, i64 %37
  %39 = load i32, ptr %38, align 4
  %40 = load i32, ptr %18, align 4
  %41 = sext i32 %40 to i64
  %42 = getelementptr inbounds [4 x i32], ptr %15, i64 0, i64 %41
  store i32 %39, ptr %42, align 4
  %43 = load ptr, ptr %8, align 8
  %44 = getelementptr inbounds nuw %struct.deal, ptr %43, i32 0, i32 3
  %45 = load i32, ptr %17, align 4
  %46 = sext i32 %45 to i64
  %47 = getelementptr inbounds [3 x i32], ptr %44, i64 0, i64 %46
  %48 = load i32, ptr %47, align 4
  %49 = load i32, ptr %18, align 4
  %50 = sext i32 %49 to i64
  %51 = getelementptr inbounds [4 x i32], ptr %16, i64 0, i64 %50
  store i32 %48, ptr %51, align 4
  br label %52

52:                                               ; preds = %27
  %53 = load i32, ptr %17, align 4
  %54 = add nsw i32 %53, 1
  store i32 %54, ptr %17, align 4
  br label %23, !llvm.loop !30

55:                                               ; preds = %23
  %56 = load i32, ptr %11, align 4
  store i32 %56, ptr %17, align 4
  br label %57

57:                                               ; preds = %107, %55
  %58 = load i32, ptr %17, align 4
  %59 = icmp slt i32 %58, 4
  br i1 %59, label %60, label %110

60:                                               ; preds = %57
  %61 = load ptr, ptr %8, align 8
  %62 = getelementptr inbounds nuw %struct.deal, ptr %61, i32 0, i32 1
  %63 = load i32, ptr %62, align 4
  %64 = load i32, ptr %17, align 4
  %65 = add nsw i32 %63, %64
  %66 = and i32 %65, 3
  store i32 %66, ptr %18, align 4
  store i32 0, ptr %19, align 4
  br label %67

67:                                               ; preds = %103, %60
  %68 = load i32, ptr %19, align 4
  %69 = icmp slt i32 %68, 4
  br i1 %69, label %70, label %106

70:                                               ; preds = %67
  %71 = load ptr, ptr %9, align 8
  %72 = getelementptr inbounds nuw %struct.ThreadData, ptr %71, i32 0, i32 3
  %73 = load i32, ptr %18, align 4
  %74 = sext i32 %73 to i64
  %75 = getelementptr inbounds [4 x [4 x i16]], ptr %72, i64 0, i64 %74
  %76 = load i32, ptr %19, align 4
  %77 = sext i32 %76 to i64
  %78 = getelementptr inbounds [4 x i16], ptr %75, i64 0, i64 %77
  %79 = load i16, ptr %78, align 2
  %80 = zext i16 %79 to i32
  %81 = icmp ne i32 %80, 0
  br i1 %81, label %82, label %102

82:                                               ; preds = %70
  %83 = load i32, ptr %19, align 4
  %84 = load i32, ptr %18, align 4
  %85 = sext i32 %84 to i64
  %86 = getelementptr inbounds [4 x i32], ptr %15, i64 0, i64 %85
  store i32 %83, ptr %86, align 4
  %87 = load ptr, ptr %9, align 8
  %88 = getelementptr inbounds nuw %struct.ThreadData, ptr %87, i32 0, i32 3
  %89 = load i32, ptr %18, align 4
  %90 = sext i32 %89 to i64
  %91 = getelementptr inbounds [4 x [4 x i16]], ptr %88, i64 0, i64 %90
  %92 = load i32, ptr %19, align 4
  %93 = sext i32 %92 to i64
  %94 = getelementptr inbounds [4 x i16], ptr %91, i64 0, i64 %93
  %95 = load i16, ptr %94, align 2
  %96 = zext i16 %95 to i64
  %97 = getelementptr inbounds [8192 x i32], ptr @highestRank, i64 0, i64 %96
  %98 = load i32, ptr %97, align 4
  %99 = load i32, ptr %18, align 4
  %100 = sext i32 %99 to i64
  %101 = getelementptr inbounds [4 x i32], ptr %16, i64 0, i64 %100
  store i32 %98, ptr %101, align 4
  br label %106

102:                                              ; preds = %70
  br label %103

103:                                              ; preds = %102
  %104 = load i32, ptr %19, align 4
  %105 = add nsw i32 %104, 1
  store i32 %105, ptr %19, align 4
  br label %67, !llvm.loop !31

106:                                              ; preds = %82, %67
  br label %107

107:                                              ; preds = %106
  %108 = load i32, ptr %17, align 4
  %109 = add nsw i32 %108, 1
  store i32 %109, ptr %17, align 4
  br label %57, !llvm.loop !32

110:                                              ; preds = %57
  store i32 0, ptr %20, align 4
  store i32 -1, ptr %22, align 4
  %111 = load ptr, ptr %8, align 8
  %112 = getelementptr inbounds nuw %struct.deal, ptr %111, i32 0, i32 0
  %113 = load i32, ptr %112, align 4
  %114 = icmp ne i32 %113, 4
  br i1 %114, label %115, label %149

115:                                              ; preds = %110
  store i32 0, ptr %17, align 4
  br label %116

116:                                              ; preds = %145, %115
  %117 = load i32, ptr %17, align 4
  %118 = icmp slt i32 %117, 4
  br i1 %118, label %119, label %148

119:                                              ; preds = %116
  %120 = load i32, ptr %17, align 4
  %121 = sext i32 %120 to i64
  %122 = getelementptr inbounds [4 x i32], ptr %15, i64 0, i64 %121
  %123 = load i32, ptr %122, align 4
  %124 = load ptr, ptr %8, align 8
  %125 = getelementptr inbounds nuw %struct.deal, ptr %124, i32 0, i32 0
  %126 = load i32, ptr %125, align 4
  %127 = icmp eq i32 %123, %126
  br i1 %127, label %128, label %144

128:                                              ; preds = %119
  %129 = load i32, ptr %17, align 4
  %130 = sext i32 %129 to i64
  %131 = getelementptr inbounds [4 x i32], ptr %16, i64 0, i64 %130
  %132 = load i32, ptr %131, align 4
  %133 = load i32, ptr %20, align 4
  %134 = icmp sgt i32 %132, %133
  br i1 %134, label %135, label %144

135:                                              ; preds = %128
  %136 = load i32, ptr %17, align 4
  %137 = sext i32 %136 to i64
  %138 = getelementptr inbounds [4 x i32], ptr %16, i64 0, i64 %137
  %139 = load i32, ptr %138, align 4
  store i32 %139, ptr %20, align 4
  %140 = load ptr, ptr %8, align 8
  %141 = getelementptr inbounds nuw %struct.deal, ptr %140, i32 0, i32 0
  %142 = load i32, ptr %141, align 4
  store i32 %142, ptr %21, align 4
  %143 = load i32, ptr %17, align 4
  store i32 %143, ptr %22, align 4
  br label %144

144:                                              ; preds = %135, %128, %119
  br label %145

145:                                              ; preds = %144
  %146 = load i32, ptr %17, align 4
  %147 = add nsw i32 %146, 1
  store i32 %147, ptr %17, align 4
  br label %116, !llvm.loop !33

148:                                              ; preds = %116
  br label %149

149:                                              ; preds = %148, %110
  %150 = load i32, ptr %20, align 4
  %151 = icmp eq i32 %150, 0
  br i1 %151, label %152, label %196

152:                                              ; preds = %149
  %153 = load ptr, ptr %8, align 8
  %154 = getelementptr inbounds nuw %struct.deal, ptr %153, i32 0, i32 1
  %155 = load i32, ptr %154, align 4
  %156 = sext i32 %155 to i64
  %157 = getelementptr inbounds [4 x i32], ptr %16, i64 0, i64 %156
  %158 = load i32, ptr %157, align 4
  store i32 %158, ptr %20, align 4
  %159 = load ptr, ptr %8, align 8
  %160 = getelementptr inbounds nuw %struct.deal, ptr %159, i32 0, i32 1
  %161 = load i32, ptr %160, align 4
  %162 = sext i32 %161 to i64
  %163 = getelementptr inbounds [4 x i32], ptr %15, i64 0, i64 %162
  %164 = load i32, ptr %163, align 4
  store i32 %164, ptr %21, align 4
  %165 = load ptr, ptr %8, align 8
  %166 = getelementptr inbounds nuw %struct.deal, ptr %165, i32 0, i32 1
  %167 = load i32, ptr %166, align 4
  store i32 %167, ptr %22, align 4
  store i32 0, ptr %17, align 4
  br label %168

168:                                              ; preds = %192, %152
  %169 = load i32, ptr %17, align 4
  %170 = icmp slt i32 %169, 4
  br i1 %170, label %171, label %195

171:                                              ; preds = %168
  %172 = load i32, ptr %17, align 4
  %173 = sext i32 %172 to i64
  %174 = getelementptr inbounds [4 x i32], ptr %15, i64 0, i64 %173
  %175 = load i32, ptr %174, align 4
  %176 = load i32, ptr %21, align 4
  %177 = icmp eq i32 %175, %176
  br i1 %177, label %178, label %191

178:                                              ; preds = %171
  %179 = load i32, ptr %17, align 4
  %180 = sext i32 %179 to i64
  %181 = getelementptr inbounds [4 x i32], ptr %16, i64 0, i64 %180
  %182 = load i32, ptr %181, align 4
  %183 = load i32, ptr %20, align 4
  %184 = icmp sgt i32 %182, %183
  br i1 %184, label %185, label %191

185:                                              ; preds = %178
  %186 = load i32, ptr %17, align 4
  store i32 %186, ptr %22, align 4
  %187 = load i32, ptr %17, align 4
  %188 = sext i32 %187 to i64
  %189 = getelementptr inbounds [4 x i32], ptr %16, i64 0, i64 %188
  %190 = load i32, ptr %189, align 4
  store i32 %190, ptr %20, align 4
  br label %191

191:                                              ; preds = %185, %178, %171
  br label %192

192:                                              ; preds = %191
  %193 = load i32, ptr %17, align 4
  %194 = add nsw i32 %193, 1
  store i32 %194, ptr %17, align 4
  br label %168, !llvm.loop !34

195:                                              ; preds = %168
  br label %196

196:                                              ; preds = %195, %149
  %197 = load ptr, ptr %8, align 8
  %198 = getelementptr inbounds nuw %struct.deal, ptr %197, i32 0, i32 1
  %199 = load i32, ptr %198, align 4
  %200 = load i32, ptr %11, align 4
  %201 = add nsw i32 %199, %200
  %202 = and i32 %201, 3
  store i32 %202, ptr %18, align 4
  %203 = load i32, ptr %18, align 4
  %204 = sext i32 %203 to i64
  %205 = getelementptr inbounds [4 x i32], ptr %16, i64 0, i64 %204
  %206 = load i32, ptr %205, align 4
  %207 = load ptr, ptr %12, align 8
  store i32 %206, ptr %207, align 4
  %208 = load i32, ptr %18, align 4
  %209 = sext i32 %208 to i64
  %210 = getelementptr inbounds [4 x i32], ptr %15, i64 0, i64 %209
  %211 = load i32, ptr %210, align 4
  %212 = load ptr, ptr %13, align 8
  store i32 %211, ptr %212, align 4
  %213 = load i32, ptr %10, align 4
  %214 = load i32, ptr %22, align 4
  %215 = icmp eq i32 %213, %214
  br i1 %215, label %223, label %216

216:                                              ; preds = %196
  %217 = load i32, ptr %10, align 4
  %218 = sext i32 %217 to i64
  %219 = getelementptr inbounds [4 x i32], ptr @partner, i64 0, i64 %218
  %220 = load i32, ptr %219, align 4
  %221 = load i32, ptr %22, align 4
  %222 = icmp eq i32 %220, %221
  br label %223

223:                                              ; preds = %216, %196
  %224 = phi i1 [ true, %196 ], [ %222, %216 ]
  %225 = select i1 %224, i32 1, i32 0
  %226 = load ptr, ptr %14, align 8
  store i32 %225, ptr %226, align 4
  ret void
}