; Function Attrs: mustprogress nofree norecurse nosync nounwind memory(read, argmem: readwrite, inaccessiblemem: none) uwtable
define void @_Z15LastTrickWinnerRK4dealPK10ThreadDataiiRiS5_S5_(ptr noundef nonnull readonly align 4 captures(none) dereferenceable(96) %0, ptr noundef readonly captures(none) %1, i32 noundef %2, i32 noundef %3, ptr noundef nonnull writeonly align 4 captures(none) dereferenceable(4) %4, ptr noundef nonnull writeonly align 4 captures(none) dereferenceable(4) %5, ptr noundef nonnull writeonly align 4 captures(none) dereferenceable(4) %6) local_unnamed_addr #5 {
  %8 = alloca [4 x i32], align 16
  %9 = alloca [4 x i32], align 16
  %10 = icmp sgt i32 %3, 0
  br i1 %10, label %.lr.ph, label %.lr.ph86

.lr.ph:                                           ; preds = %7
  %11 = getelementptr inbounds nuw i8, ptr %0, i64 4
  %12 = load i32, ptr %11, align 4
  %13 = getelementptr inbounds nuw i8, ptr %0, i64 8
  %14 = getelementptr inbounds nuw i8, ptr %0, i64 20
  %wide.trip.count = zext nneg i32 %3 to i64
  br label %19

.preheader80:                                     ; preds = %19
  %15 = icmp slt i32 %3, 4
  br i1 %15, label %.lr.ph86, label %._crit_edge

.lr.ph86:                                         ; preds = %7, %.preheader80
  %16 = getelementptr inbounds nuw i8, ptr %0, i64 4
  %17 = load i32, ptr %16, align 4
  %18 = getelementptr inbounds nuw i8, ptr %1, i64 22
  br label %30

19:                                               ; preds = %.lr.ph, %19
  %indvars.iv = phi i64 [ 0, %.lr.ph ], [ %indvars.iv.next, %19 ]
  %20 = trunc i64 %indvars.iv to i32
  %21 = add i32 %12, %20
  %22 = and i32 %21, 3
  %23 = getelementptr inbounds nuw [3 x i32], ptr %13, i64 0, i64 %indvars.iv
  %24 = load i32, ptr %23, align 4
  %25 = zext nneg i32 %22 to i64
  %26 = getelementptr inbounds nuw [4 x i32], ptr %8, i64 0, i64 %25
  store i32 %24, ptr %26, align 4
  %27 = getelementptr inbounds nuw [3 x i32], ptr %14, i64 0, i64 %indvars.iv
  %28 = load i32, ptr %27, align 4
  %29 = getelementptr inbounds nuw [4 x i32], ptr %9, i64 0, i64 %25
  store i32 %28, ptr %29, align 4
  %indvars.iv.next = add nuw nsw i64 %indvars.iv, 1
  %exitcond.not = icmp eq i64 %indvars.iv.next, %wide.trip.count
  br i1 %exitcond.not, label %.preheader80, label %19, !llvm.loop !30

30:                                               ; preds = %.lr.ph86, %.loopexit79
  %.16685 = phi i32 [ %3, %.lr.ph86 ], [ %45, %.loopexit79 ]
  %31 = add nsw i32 %17, %.16685
  %32 = and i32 %31, 3
  %33 = zext nneg i32 %32 to i64
  br label %34

34:                                               ; preds = %30, %44
  %indvars.iv96 = phi i64 [ 0, %30 ], [ %indvars.iv.next97, %44 ]
  %35 = getelementptr inbounds nuw [4 x [4 x i16]], ptr %18, i64 0, i64 %33, i64 %indvars.iv96
  %36 = load i16, ptr %35, align 2
  %.not73 = icmp eq i16 %36, 0
  br i1 %.not73, label %44, label %37

37:                                               ; preds = %34
  %38 = trunc nuw nsw i64 %indvars.iv96 to i32
  %39 = getelementptr inbounds nuw [4 x i32], ptr %8, i64 0, i64 %33
  store i32 %38, ptr %39, align 4
  %40 = zext i16 %36 to i64
  %41 = getelementptr inbounds nuw [8192 x i32], ptr @highestRank, i64 0, i64 %40
  %42 = load i32, ptr %41, align 4
  %43 = getelementptr inbounds nuw [4 x i32], ptr %9, i64 0, i64 %33
  store i32 %42, ptr %43, align 4
  br label %.loopexit79

44:                                               ; preds = %34
  %indvars.iv.next97 = add nuw nsw i64 %indvars.iv96, 1
  %exitcond99.not = icmp eq i64 %indvars.iv.next97, 4
  br i1 %exitcond99.not, label %.loopexit79, label %34, !llvm.loop !31

.loopexit79:                                      ; preds = %44, %37
  %45 = add i32 %.16685, 1
  %exitcond100.not = icmp eq i32 %45, 4
  br i1 %exitcond100.not, label %._crit_edge, label %30, !llvm.loop !32

._crit_edge:                                      ; preds = %.loopexit79, %.preheader80
  %46 = load i32, ptr %0, align 4
  %.not = icmp eq i32 %46, 4
  br i1 %.not, label %.thread, label %.preheader

.preheader:                                       ; preds = %._crit_edge, %55
  %indvars.iv101 = phi i64 [ %indvars.iv.next102, %55 ], [ 0, %._crit_edge ]
  %.189 = phi i32 [ %.2, %55 ], [ -1, %._crit_edge ]
  %.16088 = phi i32 [ %.261, %55 ], [ 0, %._crit_edge ]
  %47 = getelementptr inbounds nuw [4 x i32], ptr %8, i64 0, i64 %indvars.iv101
  %48 = load i32, ptr %47, align 4
  %49 = icmp eq i32 %48, %46
  br i1 %49, label %50, label %55

50:                                               ; preds = %.preheader
  %51 = getelementptr inbounds nuw [4 x i32], ptr %9, i64 0, i64 %indvars.iv101
  %52 = load i32, ptr %51, align 4
  %53 = icmp sgt i32 %52, %.16088
  %spec.select = tail call i32 @llvm.smax.i32(i32 %52, i32 %.16088)
  %54 = trunc nuw nsw i64 %indvars.iv101 to i32
  %spec.select74 = select i1 %53, i32 %54, i32 %.189
  br label %55

55:                                               ; preds = %50, %.preheader
  %.261 = phi i32 [ %.16088, %.preheader ], [ %spec.select, %50 ]
  %.2 = phi i32 [ %.189, %.preheader ], [ %spec.select74, %50 ]
  %indvars.iv.next102 = add nuw nsw i64 %indvars.iv101, 1
  %exitcond104.not = icmp eq i64 %indvars.iv.next102, 4
  br i1 %exitcond104.not, label %56, label %.preheader, !llvm.loop !33

56:                                               ; preds = %55
  %57 = icmp eq i32 %.261, 0
  br i1 %57, label %.thread, label %..loopexit_crit_edge

..loopexit_crit_edge:                             ; preds = %56
  %.phi.trans.insert = getelementptr inbounds nuw i8, ptr %0, i64 4
  %.pre = load i32, ptr %.phi.trans.insert, align 4
  br label %.loopexit

.thread:                                          ; preds = %._crit_edge, %56
  %58 = getelementptr inbounds nuw i8, ptr %0, i64 4
  %59 = load i32, ptr %58, align 4
  %60 = sext i32 %59 to i64
  %61 = getelementptr inbounds [4 x i32], ptr %9, i64 0, i64 %60
  %62 = load i32, ptr %61, align 4
  %63 = getelementptr inbounds [4 x i32], ptr %8, i64 0, i64 %60
  %64 = load i32, ptr %63, align 4
  br label %65

65:                                               ; preds = %.thread, %74
  %indvars.iv105 = phi i64 [ 0, %.thread ], [ %indvars.iv.next106, %74 ]
  %.492 = phi i32 [ %59, %.thread ], [ %.5, %74 ]
  %.36291 = phi i32 [ %62, %.thread ], [ %.463, %74 ]
  %66 = getelementptr inbounds nuw [4 x i32], ptr %8, i64 0, i64 %indvars.iv105
  %67 = load i32, ptr %66, align 4
  %68 = icmp eq i32 %67, %64
  br i1 %68, label %69, label %74

69:                                               ; preds = %65
  %70 = getelementptr inbounds nuw [4 x i32], ptr %9, i64 0, i64 %indvars.iv105
  %71 = load i32, ptr %70, align 4
  %72 = icmp sgt i32 %71, %.36291
  %spec.select75 = tail call i32 @llvm.smax.i32(i32 %71, i32 %.36291)
  %73 = trunc nuw nsw i64 %indvars.iv105 to i32
  %spec.select76 = select i1 %72, i32 %73, i32 %.492
  br label %74

74:                                               ; preds = %69, %65
  %.463 = phi i32 [ %.36291, %65 ], [ %spec.select75, %69 ]
  %.5 = phi i32 [ %.492, %65 ], [ %spec.select76, %69 ]
  %indvars.iv.next106 = add nuw nsw i64 %indvars.iv105, 1
  %exitcond108.not = icmp eq i64 %indvars.iv.next106, 4
  br i1 %exitcond108.not, label %.loopexit, label %65, !llvm.loop !34

.loopexit:                                        ; preds = %74, %..loopexit_crit_edge
  %75 = phi i32 [ %.pre, %..loopexit_crit_edge ], [ %59, %74 ]
  %.3 = phi i32 [ %.2, %..loopexit_crit_edge ], [ %.5, %74 ]
  %76 = add nsw i32 %75, %3
  %77 = and i32 %76, 3
  %78 = zext nneg i32 %77 to i64
  %79 = getelementptr inbounds nuw [4 x i32], ptr %9, i64 0, i64 %78
  %80 = load i32, ptr %79, align 4
  store i32 %80, ptr %4, align 4
  %81 = getelementptr inbounds nuw [4 x i32], ptr %8, i64 0, i64 %78
  %82 = load i32, ptr %81, align 4
  store i32 %82, ptr %5, align 4
  %83 = icmp eq i32 %2, %.3
  br i1 %83, label %90, label %84

84:                                               ; preds = %.loopexit
  %85 = sext i32 %2 to i64
  %86 = getelementptr inbounds [4 x i32], ptr @partner, i64 0, i64 %85
  %87 = load i32, ptr %86, align 4
  %88 = icmp eq i32 %87, %.3
  %89 = zext i1 %88 to i32
  br label %90

90:                                               ; preds = %84, %.loopexit
  %91 = phi i32 [ 1, %.loopexit ], [ %89, %84 ]
  store i32 %91, ptr %6, align 4
  ret void
}